target datalayout = "e-m:e-p270:32:32-p271:32:32-p272:64:64-i64:64-i128:128-f80:128-n8:16:32:64-S128"
target triple = "x86_64-pc-linux-gnu"

%struct.evp_pkey_method_st = type { i32, i32, ptr, ptr, ptr, ptr, ptr, ptr, ptr, ptr, ptr, ptr, ptr, ptr, ptr, ptr, ptr, ptr, ptr, ptr, ptr, ptr, ptr, ptr, ptr, ptr, ptr, ptr, ptr, ptr, ptr, ptr, ptr }
%struct.evp_pkey_ctx_st = type { i32, ptr, ptr, ptr, ptr, %union.anon, %struct.anon.4, ptr, ptr, ptr, i32, i32, ptr, ptr, ptr, ptr, ptr, i8, ptr }
%union.anon = type { %struct.anon.0 }
%struct.anon.0 = type { ptr, ptr }
%struct.anon.4 = type { ptr, ptr, i64, i8 }
%struct.anon.1 = type { ptr, ptr }
%struct.anon.2 = type { ptr, ptr }
%struct.anon = type { ptr }
%struct.anon.3 = type { ptr, ptr }

@.str = private unnamed_addr constant [34 x i8] c"../openssl/crypto/evp/pmeth_lib.c\00", align 1
@__func__.evp_pkey_ctx_store_cached_data = private unnamed_addr constant [31 x i8] c"evp_pkey_ctx_store_cached_data\00", align 1
@.str.16 = private unnamed_addr constant [7 x i8] c"distid\00", align 1
@.str.17 = private unnamed_addr constant [10 x i8] c"hexdistid\00", align 1

; Function Attrs: nounwind uwtable
define internal void @evp_pkey_ctx_free_cached_data(ptr noundef %0, i32 noundef %1, ptr noundef %2) #0 {
  %4 = alloca ptr, align 8
  %5 = alloca i32, align 4
  %6 = alloca ptr, align 8
  store ptr %0, ptr %4, align 8, !tbaa !18
  store i32 %1, ptr %5, align 4, !tbaa !3
  store ptr %2, ptr %6, align 8, !tbaa !33
  %7 = load i32, ptr %5, align 4, !tbaa !3
  %8 = load ptr, ptr %6, align 8, !tbaa !33
  %9 = call i32 @decode_cmd(i32 noundef %7, ptr noundef %8)
  store i32 %9, ptr %5, align 4, !tbaa !3
  %10 = load i32, ptr %5, align 4, !tbaa !3
  switch i32 %10, label %26 [
    i32 15, label %11
  ]

11:                                               ; preds = %3
  %12 = load ptr, ptr %4, align 8, !tbaa !18
  %13 = getelementptr inbounds nuw %struct.evp_pkey_ctx_st, ptr %12, i32 0, i32 6
  %14 = getelementptr inbounds nuw %struct.anon.4, ptr %13, i32 0, i32 1
  %15 = load ptr, ptr %14, align 8, !tbaa !115
  call void @CRYPTO_free(ptr noundef %15, ptr noundef @.str, i32 noundef 1516)
  %16 = load ptr, ptr %4, align 8, !tbaa !18
  %17 = getelementptr inbounds nuw %struct.evp_pkey_ctx_st, ptr %16, i32 0, i32 6
  %18 = getelementptr inbounds nuw %struct.anon.4, ptr %17, i32 0, i32 0
  %19 = load ptr, ptr %18, align 8, !tbaa !114
  call void @CRYPTO_free(ptr noundef %19, ptr noundef @.str, i32 noundef 1517)
  %20 = load ptr, ptr %4, align 8, !tbaa !18
  %21 = getelementptr inbounds nuw %struct.evp_pkey_ctx_st, ptr %20, i32 0, i32 6
  %22 = getelementptr inbounds nuw %struct.anon.4, ptr %21, i32 0, i32 1
  store ptr null, ptr %22, align 8, !tbaa !115
  %23 = load ptr, ptr %4, align 8, !tbaa !18
  %24 = getelementptr inbounds nuw %struct.evp_pkey_ctx_st, ptr %23, i32 0, i32 6
  %25 = getelementptr inbounds nuw %struct.anon.4, ptr %24, i32 0, i32 0
  store ptr null, ptr %25, align 8, !tbaa !114
  br label %26

26:                                               ; preds = %3, %11
  ret void
}

; Function Attrs: nounwind uwtable
define i32 @evp_pkey_ctx_state(ptr noundef %0) #0 {
  %2 = alloca i32, align 4
  %3 = alloca ptr, align 8
  store ptr %0, ptr %3, align 8, !tbaa !18
  %4 = load ptr, ptr %3, align 8, !tbaa !18
  %5 = getelementptr inbounds nuw %struct.evp_pkey_ctx_st, ptr %4, i32 0, i32 0
  %6 = load i32, ptr %5, align 8, !tbaa !20
  %7 = icmp eq i32 %6, 0
  br i1 %7, label %8, label %9

8:                                                ; preds = %1
  store i32 0, ptr %2, align 4
  br label %71

9:                                                ; preds = %1
  %10 = load ptr, ptr %3, align 8, !tbaa !18
  %11 = getelementptr inbounds nuw %struct.evp_pkey_ctx_st, ptr %10, i32 0, i32 0
  %12 = load i32, ptr %11, align 8, !tbaa !20
  %13 = and i32 %12, 2048
  %14 = icmp ne i32 %13, 0
  br i1 %14, label %15, label %21

15:                                               ; preds = %9
  %16 = load ptr, ptr %3, align 8, !tbaa !18
  %17 = getelementptr inbounds nuw %struct.evp_pkey_ctx_st, ptr %16, i32 0, i32 5
  %18 = getelementptr inbounds nuw %struct.anon.0, ptr %17, i32 0, i32 1
  %19 = load ptr, ptr %18, align 8, !tbaa !31
  %20 = icmp ne ptr %19, null
  br i1 %20, label %69, label %21

21:                                               ; preds = %15, %9
  %22 = load ptr, ptr %3, align 8, !tbaa !18
  %23 = getelementptr inbounds nuw %struct.evp_pkey_ctx_st, ptr %22, i32 0, i32 0
  %24 = load i32, ptr %23, align 8, !tbaa !20
  %25 = and i32 %24, 49648
  %26 = icmp ne i32 %25, 0
  br i1 %26, label %27, label %33

27:                                               ; preds = %21
  %28 = load ptr, ptr %3, align 8, !tbaa !18
  %29 = getelementptr inbounds nuw %struct.evp_pkey_ctx_st, ptr %28, i32 0, i32 5
  %30 = getelementptr inbounds nuw %struct.anon.1, ptr %29, i32 0, i32 1
  %31 = load ptr, ptr %30, align 8, !tbaa !31
  %32 = icmp ne ptr %31, null
  br i1 %32, label %69, label %33

33:                                               ; preds = %27, %21
  %34 = load ptr, ptr %3, align 8, !tbaa !18
  %35 = getelementptr inbounds nuw %struct.evp_pkey_ctx_st, ptr %34, i32 0, i32 0
  %36 = load i32, ptr %35, align 8, !tbaa !20
  %37 = and i32 %36, 1536
  %38 = icmp ne i32 %37, 0
  br i1 %38, label %39, label %45

39:                                               ; preds = %33
  %40 = load ptr, ptr %3, align 8, !tbaa !18
  %41 = getelementptr inbounds nuw %struct.evp_pkey_ctx_st, ptr %40, i32 0, i32 5
  %42 = getelementptr inbounds nuw %struct.anon.2, ptr %41, i32 0, i32 1
  %43 = load ptr, ptr %42, align 8, !tbaa !31
  %44 = icmp ne ptr %43, null
  br i1 %44, label %69, label %45

45:                                               ; preds = %39, %33
  %46 = load ptr, ptr %3, align 8, !tbaa !18
  %47 = getelementptr inbounds nuw %struct.evp_pkey_ctx_st, ptr %46, i32 0, i32 0
  %48 = load i32, ptr %47, align 8, !tbaa !20
  %49 = and i32 %48, 6
  %50 = icmp ne i32 %49, 0
  br i1 %50, label %51, label %57

51:                                               ; preds = %45
  %52 = load ptr, ptr %3, align 8, !tbaa !18
  %53 = getelementptr inbounds nuw %struct.evp_pkey_ctx_st, ptr %52, i32 0, i32 5
  %54 = getelementptr inbounds nuw %struct.anon, ptr %53, i32 0, i32 0
  %55 = load ptr, ptr %54, align 8, !tbaa !31
  %56 = icmp ne ptr %55, null
  br i1 %56, label %69, label %57

57:                                               ; preds = %51, %45
  %58 = load ptr, ptr %3, align 8, !tbaa !18
  %59 = getelementptr inbounds nuw %struct.evp_pkey_ctx_st, ptr %58, i32 0, i32 0
  %60 = load i32, ptr %59, align 8, !tbaa !20
  %61 = and i32 %60, 12288
  %62 = icmp ne i32 %61, 0
  br i1 %62, label %63, label %70

63:                                               ; preds = %57
  %64 = load ptr, ptr %3, align 8, !tbaa !18
  %65 = getelementptr inbounds nuw %struct.evp_pkey_ctx_st, ptr %64, i32 0, i32 5
  %66 = getelementptr inbounds nuw %struct.anon.3, ptr %65, i32 0, i32 1
  %67 = load ptr, ptr %66, align 8, !tbaa !31
  %68 = icmp ne ptr %67, null
  br i1 %68, label %69, label %70

69:                                               ; preds = %63, %51, %39, %27, %15
  store i32 2, ptr %2, align 4
  br label %71

70:                                               ; preds = %63, %57
  store i32 1, ptr %2, align 4
  br label %71

71:                                               ; preds = %70, %69, %8
  %72 = load i32, ptr %2, align 4
  ret i32 %72
}

; Function Attrs: nounwind uwtable
define internal i32 @decode_cmd(i32 noundef %0, ptr noundef %1) #0 {
  %3 = alloca i32, align 4
  %4 = alloca ptr, align 8
  store i32 %0, ptr %3, align 4, !tbaa !3
  store ptr %1, ptr %4, align 8, !tbaa !33
  %5 = load i32, ptr %3, align 4, !tbaa !3
  %6 = icmp eq i32 %5, -1
  br i1 %6, label %7, label %29

7:                                                ; preds = %2
  %8 = load ptr, ptr %4, align 8, !tbaa !33
  %9 = icmp ne ptr %8, null
  %10 = zext i1 %9 to i32
  %11 = icmp ne i32 %10, 0
  %12 = xor i1 %11, true
  %13 = xor i1 %12, true
  %14 = zext i1 %13 to i32
  %15 = sext i32 %14 to i64
  %16 = call i64 @llvm.expect.i64(i64 %15, i64 1)
  %17 = icmp ne i64 %16, 0
  br i1 %17, label %18, label %28

18:                                               ; preds = %7
  %19 = load ptr, ptr %4, align 8, !tbaa !33
  %20 = call i32 @strcmp(ptr noundef %19, ptr noundef @.str.16) #9
  %21 = icmp eq i32 %20, 0
  br i1 %21, label %26, label %22

22:                                               ; preds = %18
  %23 = load ptr, ptr %4, align 8, !tbaa !33
  %24 = call i32 @strcmp(ptr noundef %23, ptr noundef @.str.17) #9
  %25 = icmp eq i32 %24, 0
  br i1 %25, label %26, label %27

26:                                               ; preds = %22, %18
  store i32 15, ptr %3, align 4, !tbaa !3
  br label %27

27:                                               ; preds = %26, %22
  br label %28

28:                                               ; preds = %27, %7
  br label %29

29:                                               ; preds = %28, %2
  %30 = load i32, ptr %3, align 4, !tbaa !3
  ret i32 %30
}

; Function Attrs: nounwind uwtable
define internal i32 @evp_pkey_ctx_store_cached_data(ptr noundef %0, i32 noundef %1, i32 noundef %2, i32 noundef %3, ptr noundef %4, ptr noundef %5, i64 noundef %6) #0 {
  %8 = alloca i32, align 4
  %9 = alloca ptr, align 8
  %10 = alloca i32, align 4
  %11 = alloca i32, align 4
  %12 = alloca i32, align 4
  %13 = alloca ptr, align 8
  %14 = alloca ptr, align 8
  %15 = alloca i64, align 8
  store ptr %0, ptr %9, align 8, !tbaa !18
  store i32 %1, ptr %10, align 4, !tbaa !3
  store i32 %2, ptr %11, align 4, !tbaa !3
  store i32 %3, ptr %12, align 4, !tbaa !3
  store ptr %4, ptr %13, align 8, !tbaa !33
  store ptr %5, ptr %14, align 8, !tbaa !12
  store i64 %6, ptr %15, align 8, !tbaa !77
  %16 = load i32, ptr %12, align 4, !tbaa !3
  %17 = load ptr, ptr %13, align 8, !tbaa !33
  %18 = call i32 @decode_cmd(i32 noundef %16, ptr noundef %17)
  store i32 %18, ptr %12, align 4, !tbaa !3
  switch i32 %18, label %19 [
    i32 15, label %20
  ]

19:                                               ; preds = %7
  call void @ERR_new()
  call void @ERR_set_debug(ptr noundef @.str, i32 noundef 1455, ptr noundef @__func__.evp_pkey_ctx_store_cached_data)
  call void (i32, i32, ptr, ...) @ERR_set_error(i32 noundef 6, i32 noundef 147, ptr noundef null)
  store i32 -2, ptr %8, align 4
  br label %122

20:                                               ; preds = %7
  %21 = load i32, ptr %10, align 4, !tbaa !3
  %22 = icmp ne i32 %21, -1
  br i1 %22, label %23, label %61

23:                                               ; preds = %20
  %24 = load ptr, ptr %9, align 8, !tbaa !18
  %25 = call i32 @evp_pkey_ctx_state(ptr noundef %24)
  switch i32 %25, label %60 [
    i32 2, label %26
    i32 0, label %42
    i32 1, label %42
  ]

26:                                               ; preds = %23
  %27 = load ptr, ptr %9, align 8, !tbaa !18
  %28 = getelementptr inbounds nuw %struct.evp_pkey_ctx_st, ptr %27, i32 0, i32 4
  %29 = load ptr, ptr %28, align 8, !tbaa !52
  %30 = icmp eq ptr %29, null
  br i1 %30, label %31, label %32

31:                                               ; preds = %26
  call void @ERR_new()
  call void @ERR_set_debug(ptr noundef @.str, i32 noundef 1463, ptr noundef @__func__.evp_pkey_ctx_store_cached_data)
  call void (i32, i32, ptr, ...) @ERR_set_error(i32 noundef 6, i32 noundef 147, ptr noundef null)
  store i32 -2, ptr %8, align 4
  br label %122

32:                                               ; preds = %26
  %33 = load ptr, ptr %9, align 8, !tbaa !18
  %34 = getelementptr inbounds nuw %struct.evp_pkey_ctx_st, ptr %33, i32 0, i32 4
  %35 = load ptr, ptr %34, align 8, !tbaa !52
  %36 = load i32, ptr %10, align 4, !tbaa !3
  %37 = call ptr @evp_pkey_type2name(i32 noundef %36)
  %38 = call i32 @EVP_KEYMGMT_is_a(ptr noundef %35, ptr noundef %37)
  %39 = icmp ne i32 %38, 0
  br i1 %39, label %41, label %40

40:                                               ; preds = %32
  call void @ERR_new()
  call void @ERR_set_debug(ptr noundef @.str, i32 noundef 1468, ptr noundef @__func__.evp_pkey_ctx_store_cached_data)
  call void (i32, i32, ptr, ...) @ERR_set_error(i32 noundef 6, i32 noundef 148, ptr noundef null)
  store i32 -1, ptr %8, align 4
  br label %122

41:                                               ; preds = %32
  br label %60

42:                                               ; preds = %23, %23
  %43 = load ptr, ptr %9, align 8, !tbaa !18
  %44 = getelementptr inbounds nuw %struct.evp_pkey_ctx_st, ptr %43, i32 0, i32 12
  %45 = load ptr, ptr %44, align 8, !tbaa !55
  %46 = icmp eq ptr %45, null
  br i1 %46, label %47, label %48

47:                                               ; preds = %42
  call void @ERR_new()
  call void @ERR_set_debug(ptr noundef @.str, i32 noundef 1475, ptr noundef @__func__.evp_pkey_ctx_store_cached_data)
  call void (i32, i32, ptr, ...) @ERR_set_error(i32 noundef 6, i32 noundef 147, ptr noundef null)
  store i32 -2, ptr %8, align 4
  br label %122

48:                                               ; preds = %42
  %49 = load ptr, ptr %9, align 8, !tbaa !18
  %50 = getelementptr inbounds nuw %struct.evp_pkey_ctx_st, ptr %49, i32 0, i32 12
  %51 = load ptr, ptr %50, align 8, !tbaa !55
  %52 = getelementptr inbounds nuw %struct.evp_pkey_method_st, ptr %51, i32 0, i32 0
  %53 = load i32, ptr %52, align 8, !tbaa !10
  %54 = call i32 @EVP_PKEY_type(i32 noundef %53)
  %55 = load i32, ptr %10, align 4, !tbaa !3
  %56 = call i32 @EVP_PKEY_type(i32 noundef %55)
  %57 = icmp ne i32 %54, %56
  br i1 %57, label %58, label %59

58:                                               ; preds = %48
  call void @ERR_new()
  call void @ERR_set_debug(ptr noundef @.str, i32 noundef 1479, ptr noundef @__func__.evp_pkey_ctx_store_cached_data)
  call void (i32, i32, ptr, ...) @ERR_set_error(i32 noundef 6, i32 noundef 148, ptr noundef null)
  store i32 -1, ptr %8, align 4
  br label %122

59:                                               ; preds = %48
  br label %60

60:                                               ; preds = %23, %59, %41
  br label %61

61:                                               ; preds = %60, %20
  %62 = load i32, ptr %11, align 4, !tbaa !3
  %63 = icmp ne i32 %62, -1
  br i1 %63, label %64, label %72

64:                                               ; preds = %61
  %65 = load ptr, ptr %9, align 8, !tbaa !18
  %66 = getelementptr inbounds nuw %struct.evp_pkey_ctx_st, ptr %65, i32 0, i32 0
  %67 = load i32, ptr %66, align 8, !tbaa !20
  %68 = load i32, ptr %11, align 4, !tbaa !3
  %69 = and i32 %67, %68
  %70 = icmp eq i32 %69, 0
  br i1 %70, label %71, label %72

71:                                               ; preds = %64
  call void @ERR_new()
  call void @ERR_set_debug(ptr noundef @.str, i32 noundef 1486, ptr noundef @__func__.evp_pkey_ctx_store_cached_data)
  call void (i32, i32, ptr, ...) @ERR_set_error(i32 noundef 6, i32 noundef 148, ptr noundef null)
  store i32 -1, ptr %8, align 4
  br label %122

72:                                               ; preds = %64, %61
  %73 = load i32, ptr %12, align 4, !tbaa !3
  switch i32 %73, label %121 [
    i32 15, label %74
  ]

74:                                               ; preds = %72
  %75 = load ptr, ptr %9, align 8, !tbaa !18
  %76 = load i32, ptr %12, align 4, !tbaa !3
  %77 = load ptr, ptr %13, align 8, !tbaa !33
  call void @evp_pkey_ctx_free_cached_data(ptr noundef %75, i32 noundef %76, ptr noundef %77)
  %78 = load ptr, ptr %13, align 8, !tbaa !33
  %79 = icmp ne ptr %78, null
  br i1 %79, label %80, label %93

80:                                               ; preds = %74
  %81 = load ptr, ptr %13, align 8, !tbaa !33
  %82 = call noalias ptr @CRYPTO_strdup(ptr noundef %81, ptr noundef @.str, i32 noundef 1494)
  %83 = load ptr, ptr %9, align 8, !tbaa !18
  %84 = getelementptr inbounds nuw %struct.evp_pkey_ctx_st, ptr %83, i32 0, i32 6
  %85 = getelementptr inbounds nuw %struct.anon.4, ptr %84, i32 0, i32 0
  store ptr %82, ptr %85, align 8, !tbaa !114
  %86 = load ptr, ptr %9, align 8, !tbaa !18
  %87 = getelementptr inbounds nuw %struct.evp_pkey_ctx_st, ptr %86, i32 0, i32 6
  %88 = getelementptr inbounds nuw %struct.anon.4, ptr %87, i32 0, i32 0
  %89 = load ptr, ptr %88, align 8, !tbaa !114
  %90 = icmp eq ptr %89, null
  br i1 %90, label %91, label %92

91:                                               ; preds = %80
  store i32 0, ptr %8, align 4
  br label %122

92:                                               ; preds = %80
  br label %93

93:                                               ; preds = %92, %74
  %94 = load i64, ptr %15, align 8, !tbaa !77
  %95 = icmp ugt i64 %94, 0
  br i1 %95, label %96, label %110

96:                                               ; preds = %93
  %97 = load ptr, ptr %14, align 8, !tbaa !12
  %98 = load i64, ptr %15, align 8, !tbaa !77
  %99 = call noalias ptr @CRYPTO_memdup(ptr noundef %97, i64 noundef %98, ptr noundef @.str, i32 noundef 1499)
  %100 = load ptr, ptr %9, align 8, !tbaa !18
  %101 = getelementptr inbounds nuw %struct.evp_pkey_ctx_st, ptr %100, i32 0, i32 6
  %102 = getelementptr inbounds nuw %struct.anon.4, ptr %101, i32 0, i32 1
  store ptr %99, ptr %102, align 8, !tbaa !115
  %103 = load ptr, ptr %9, align 8, !tbaa !18
  %104 = getelementptr inbounds nuw %struct.evp_pkey_ctx_st, ptr %103, i32 0, i32 6
  %105 = getelementptr inbounds nuw %struct.anon.4, ptr %104, i32 0, i32 1
  %106 = load ptr, ptr %105, align 8, !tbaa !115
  %107 = icmp eq ptr %106, null
  br i1 %107, label %108, label %109

108:                                              ; preds = %96
  store i32 0, ptr %8, align 4
  br label %122

109:                                              ; preds = %96
  br label %110

110:                                              ; preds = %109, %93
  %111 = load ptr, ptr %9, align 8, !tbaa !18
  %112 = getelementptr inbounds nuw %struct.evp_pkey_ctx_st, ptr %111, i32 0, i32 6
  %113 = getelementptr inbounds nuw %struct.anon.4, ptr %112, i32 0, i32 3
  %114 = load i8, ptr %113, align 8
  %115 = and i8 %114, -2
  %116 = or i8 %115, 1
  store i8 %116, ptr %113, align 8
  %117 = load i64, ptr %15, align 8, !tbaa !77
  %118 = load ptr, ptr %9, align 8, !tbaa !18
  %119 = getelementptr inbounds nuw %struct.evp_pkey_ctx_st, ptr %118, i32 0, i32 6
  %120 = getelementptr inbounds nuw %struct.anon.4, ptr %119, i32 0, i32 2
  store i64 %117, ptr %120, align 8, !tbaa !116
  br label %121

121:                                              ; preds = %72, %110
  store i32 1, ptr %8, align 4
  br label %122

122:                                              ; preds = %121, %108, %91, %71, %58, %47, %40, %31, %19
  %123 = load i32, ptr %8, align 4
  ret i32 %123
}