; Function Attrs: nounwind uwtable
define internal fastcc range(i32 -2, 2) i32 @evp_pkey_ctx_store_cached_data(ptr noundef captures(none) %0, i32 noundef %1, i32 noundef %2, i32 noundef %3, ptr noundef %4, ptr noundef %5, i64 noundef %6) unnamed_addr #0 {
  switch i32 %3, label %decode_cmd.exit.thread [
    i32 -1, label %8
    i32 15, label %decode_cmd.exit.thread46
  ]

8:                                                ; preds = %7
  %.not.i = icmp eq ptr %4, null
  br i1 %.not.i, label %decode_cmd.exit.thread, label %9, !prof !65

9:                                                ; preds = %8
  %10 = tail call i32 @strcmp(ptr noundef nonnull readonly dereferenceable(1) %4, ptr noundef nonnull dereferenceable(7) @.str.16) #11
  %11 = icmp eq i32 %10, 0
  br i1 %11, label %decode_cmd.exit.thread46, label %12

12:                                               ; preds = %9
  %13 = tail call i32 @strcmp(ptr noundef nonnull readonly dereferenceable(1) %4, ptr noundef nonnull dereferenceable(10) @.str.17) #11
  %14 = icmp eq i32 %13, 0
  br i1 %14, label %decode_cmd.exit.thread46, label %decode_cmd.exit.thread

decode_cmd.exit.thread:                           ; preds = %7, %8, %12
  tail call void @ERR_new() #10
  tail call void @ERR_set_debug(ptr noundef nonnull @.str, i32 noundef 1455, ptr noundef nonnull @__func__.evp_pkey_ctx_store_cached_data) #10
  tail call void (i32, i32, ptr, ...) @ERR_set_error(i32 noundef 6, i32 noundef 147, ptr noundef null) #10
  br label %85

decode_cmd.exit.thread46:                         ; preds = %7, %12, %9
  %.not = icmp eq i32 %1, -1
  br i1 %.not, label %62, label %15

15:                                               ; preds = %decode_cmd.exit.thread46
  %16 = load i32, ptr %0, align 8, !tbaa !15
  %17 = icmp eq i32 %16, 0
  br i1 %17, label %52, label %18

18:                                               ; preds = %15
  %19 = and i32 %16, 2048
  %.not.i42 = icmp eq i32 %19, 0
  br i1 %.not.i42, label %23, label %20

20:                                               ; preds = %18
  %21 = getelementptr inbounds nuw i8, ptr %0, i64 48
  %22 = load ptr, ptr %21, align 8, !tbaa !26
  %.not12.i = icmp eq ptr %22, null
  br i1 %.not12.i, label %23, label %43

23:                                               ; preds = %20, %18
  %24 = and i32 %16, 49648
  %.not13.i = icmp eq i32 %24, 0
  br i1 %.not13.i, label %28, label %25

25:                                               ; preds = %23
  %26 = getelementptr inbounds nuw i8, ptr %0, i64 48
  %27 = load ptr, ptr %26, align 8, !tbaa !26
  %.not14.i = icmp eq ptr %27, null
  br i1 %.not14.i, label %28, label %43

28:                                               ; preds = %25, %23
  %29 = and i32 %16, 1536
  %.not15.i = icmp eq i32 %29, 0
  br i1 %.not15.i, label %33, label %30

30:                                               ; preds = %28
  %31 = getelementptr inbounds nuw i8, ptr %0, i64 48
  %32 = load ptr, ptr %31, align 8, !tbaa !26
  %.not16.i = icmp eq ptr %32, null
  br i1 %.not16.i, label %33, label %43

33:                                               ; preds = %30, %28
  %34 = and i32 %16, 6
  %.not17.i = icmp eq i32 %34, 0
  br i1 %.not17.i, label %38, label %35

35:                                               ; preds = %33
  %36 = getelementptr inbounds nuw i8, ptr %0, i64 40
  %37 = load ptr, ptr %36, align 8, !tbaa !26
  %.not18.i = icmp eq ptr %37, null
  br i1 %.not18.i, label %38, label %43

38:                                               ; preds = %35, %33
  %39 = and i32 %16, 12288
  %.not19.i = icmp eq i32 %39, 0
  br i1 %.not19.i, label %52, label %40

40:                                               ; preds = %38
  %41 = getelementptr inbounds nuw i8, ptr %0, i64 48
  %42 = load ptr, ptr %41, align 8, !tbaa !26
  %.not20.i = icmp eq ptr %42, null
  br i1 %.not20.i, label %52, label %43

43:                                               ; preds = %40, %35, %30, %25, %20
  %44 = getelementptr inbounds nuw i8, ptr %0, i64 32
  %45 = load ptr, ptr %44, align 8, !tbaa !43
  %46 = icmp eq ptr %45, null
  br i1 %46, label %47, label %48

47:                                               ; preds = %43
  tail call void @ERR_new() #10
  tail call void @ERR_set_debug(ptr noundef nonnull @.str, i32 noundef 1463, ptr noundef nonnull @__func__.evp_pkey_ctx_store_cached_data) #10
  tail call void (i32, i32, ptr, ...) @ERR_set_error(i32 noundef 6, i32 noundef 147, ptr noundef null) #10
  br label %85

48:                                               ; preds = %43
  %49 = tail call ptr @evp_pkey_type2name(i32 noundef %1) #10
  %50 = tail call i32 @EVP_KEYMGMT_is_a(ptr noundef nonnull %45, ptr noundef %49) #10
  %.not38 = icmp eq i32 %50, 0
  br i1 %.not38, label %51, label %62

51:                                               ; preds = %48
  tail call void @ERR_new() #10
  tail call void @ERR_set_debug(ptr noundef nonnull @.str, i32 noundef 1468, ptr noundef nonnull @__func__.evp_pkey_ctx_store_cached_data) #10
  tail call void (i32, i32, ptr, ...) @ERR_set_error(i32 noundef 6, i32 noundef 148, ptr noundef null) #10
  br label %85

52:                                               ; preds = %38, %40, %15
  %53 = getelementptr inbounds nuw i8, ptr %0, i64 120
  %54 = load ptr, ptr %53, align 8, !tbaa !46
  %55 = icmp eq ptr %54, null
  br i1 %55, label %56, label %57

56:                                               ; preds = %52
  tail call void @ERR_new() #10
  tail call void @ERR_set_debug(ptr noundef nonnull @.str, i32 noundef 1475, ptr noundef nonnull @__func__.evp_pkey_ctx_store_cached_data) #10
  tail call void (i32, i32, ptr, ...) @ERR_set_error(i32 noundef 6, i32 noundef 147, ptr noundef null) #10
  br label %85

57:                                               ; preds = %52
  %58 = load i32, ptr %54, align 8, !tbaa !8
  %59 = tail call i32 @EVP_PKEY_type(i32 noundef %58) #10
  %60 = tail call i32 @EVP_PKEY_type(i32 noundef %1) #10
  %.not37 = icmp eq i32 %59, %60
  br i1 %.not37, label %62, label %61

61:                                               ; preds = %57
  tail call void @ERR_new() #10
  tail call void @ERR_set_debug(ptr noundef nonnull @.str, i32 noundef 1479, ptr noundef nonnull @__func__.evp_pkey_ctx_store_cached_data) #10
  tail call void (i32, i32, ptr, ...) @ERR_set_error(i32 noundef 6, i32 noundef 148, ptr noundef null) #10
  br label %85

62:                                               ; preds = %48, %57, %decode_cmd.exit.thread46
  %.not39 = icmp eq i32 %2, -1
  br i1 %.not39, label %68, label %63

63:                                               ; preds = %62
  %64 = load i32, ptr %0, align 8, !tbaa !15
  %65 = and i32 %64, %2
  %66 = icmp eq i32 %65, 0
  br i1 %66, label %67, label %68

67:                                               ; preds = %63
  tail call void @ERR_new() #10
  tail call void @ERR_set_debug(ptr noundef nonnull @.str, i32 noundef 1486, ptr noundef nonnull @__func__.evp_pkey_ctx_store_cached_data) #10
  tail call void (i32, i32, ptr, ...) @ERR_set_error(i32 noundef 6, i32 noundef 148, ptr noundef null) #10
  br label %85

68:                                               ; preds = %62, %63
  %69 = getelementptr inbounds nuw i8, ptr %0, i64 56
  %70 = getelementptr inbounds nuw i8, ptr %0, i64 64
  %71 = load ptr, ptr %70, align 8, !tbaa !59
  tail call void @CRYPTO_free(ptr noundef %71, ptr noundef nonnull @.str, i32 noundef 1516) #10
  %72 = load ptr, ptr %69, align 8, !tbaa !60
  tail call void @CRYPTO_free(ptr noundef %72, ptr noundef nonnull @.str, i32 noundef 1517) #10
  tail call void @llvm.memset.p0.i64(ptr noundef nonnull align 8 dereferenceable(16) %69, i8 0, i64 16, i1 false)
  %.not40 = icmp eq ptr %4, null
  br i1 %.not40, label %76, label %73

73:                                               ; preds = %68
  %74 = tail call noalias ptr @CRYPTO_strdup(ptr noundef nonnull %4, ptr noundef nonnull @.str, i32 noundef 1494) #10
  store ptr %74, ptr %69, align 8, !tbaa !60
  %75 = icmp eq ptr %74, null
  br i1 %75, label %85, label %76

76:                                               ; preds = %73, %68
  %.not41 = icmp eq i64 %6, 0
  br i1 %.not41, label %80, label %77

77:                                               ; preds = %76
  %78 = tail call noalias ptr @CRYPTO_memdup(ptr noundef %5, i64 noundef %6, ptr noundef nonnull @.str, i32 noundef 1499) #10
  store ptr %78, ptr %70, align 8, !tbaa !59
  %79 = icmp eq ptr %78, null
  br i1 %79, label %85, label %80

80:                                               ; preds = %77, %76
  %81 = getelementptr inbounds nuw i8, ptr %0, i64 80
  %82 = load i8, ptr %81, align 8
  %83 = or i8 %82, 1
  store i8 %83, ptr %81, align 8
  %84 = getelementptr inbounds nuw i8, ptr %0, i64 72
  store i64 %6, ptr %84, align 8, !tbaa !104
  br label %85

85:                                               ; preds = %77, %73, %80, %67, %61, %56, %51, %47, %decode_cmd.exit.thread
  %.0 = phi i32 [ -1, %67 ], [ 1, %80 ], [ -2, %56 ], [ -1, %61 ], [ -2, %47 ], [ -1, %51 ], [ -2, %decode_cmd.exit.thread ], [ 0, %73 ], [ 0, %77 ]
  ret i32 %.0
}